Certificate:
    Data:
        Version: 3 (0x2)
        Serial Number:
            21:db:06:ed:e1:d9:c6:5c:59:63:da:b6:e0:f7:23:1a
        Signature Algorithm: sha256WithRSAEncryption
        Issuer: CN=test
        Validity
            Not Before: Jun 28 08:09:25 2021 GMT
            Not After : Oct  1 08:09:25 2023 GMT
        Subject: CN=mainuser
        Subject Public Key Info:
            Public Key Algorithm: rsaEncryption
                RSA Public-Key: (2048 bit)
                Modulus:
                    00:bd:09:13:d7:9f:8e:de:35:ed:03:6a:d8:f1:3d:
                    13:74:96:5e:63:52:b8:8e:92:a6:67:43:5d:d3:8f:
                    d9:2d:d1:0f:6f:b5:81:85:ce:c9:23:32:28:db:b1:
                    69:b8:a5:22:b6:0e:23:6c:14:70:88:a7:67:c2:85:
                    7c:b9:5d:e3:d4:62:22:45:8f:71:75:f9:3c:82:2b:
                    62:66:1c:87:dc:2c:ad:6d:26:d3:7f:ff:8a:10:55:
                    92:76:8a:44:79:75:1d:74:ad:23:a7:e2:56:ab:21:
                    12:13:46:d0:1b:64:38:fe:48:10:69:de:5c:c5:84:
                    ed:3b:9d:b3:3e:17:c8:3e:2c:3e:d1:91:ae:2b:02:
                    5f:14:d6:da:1d:7a:d1:ee:85:8a:8a:11:1a:81:ae:
                    0a:bd:65:32:e1:39:11:c8:10:1d:54:c1:b2:81:c0:
                    bd:80:85:c8:30:ca:e6:73:8f:bf:e0:87:72:ee:01:
                    e3:b6:55:46:2d:2c:17:ae:01:40:ca:c2:83:2e:d1:
                    62:2a:89:43:0a:e7:80:5f:69:85:8c:3c:cb:91:d9:
                    82:c6:3f:f1:21:a9:c7:78:25:f5:74:46:29:ba:10:
                    ec:1e:22:65:4d:63:2a:8e:f1:2c:e3:6c:9e:cc:e5:
                    d0:7e:7c:ec:0a:9a:81:99:0e:7a:60:94:50:39:99:
                    2b:ad
                Exponent: 65537 (0x10001)
        X509v3 extensions:
            X509v3 Basic Constraints: 
                CA:FALSE
            X509v3 Subject Key Identifier: 
                18:C6:A2:6C:47:C1:18:97:07:C5:B9:DA:10:72:A0:17:B0:C5:4A:EC
            X509v3 Authority Key Identifier: 
                keyid:57:1A:EA:BA:28:18:FF:FC:7F:F6:89:36:50:2A:67:9C:A3:75:98:41
                DirName:/CN=test
                serial:5E:47:C6:C5:B0:F2:9E:75:99:D2:A0:6F:4B:C8:11:FF:24:A3:28:D0

            X509v3 Extended Key Usage: 
                TLS Web Client Authentication
            X509v3 Key Usage: 
                Digital Signature
    Signature Algorithm: sha256WithRSAEncryption
         a3:42:cb:e6:2a:47:80:d5:47:97:40:2b:2f:da:8b:b6:03:45:
         ae:c5:69:e0:1f:5e:d8:94:85:7b:f2:f6:6d:41:f9:64:c0:88:
         31:11:72:69:5d:bb:6e:2b:e3:e4:f6:2d:e8:97:cb:df:66:85:
         58:40:2d:3b:dc:a3:9a:d8:39:21:c1:82:2e:a5:5b:c8:76:16:
         ec:e2:22:0e:18:f7:61:2b:b4:f3:d0:af:ac:ca:4c:ee:c6:6a:
         9f:29:e1:e7:d9:67:8c:41:f3:b0:67:09:59:86:6d:b0:0c:f5:
         86:ba:bc:9b:e1:53:2b:2b:d5:37:c9:11:c5:f8:9e:12:23:77:
         f3:26:d8:f0:9c:d5:d6:88:e0:f9:cc:df:cd:0d:09:31:53:0a:
         eb:dc:e7:5c:dc:f4:b1:82:20:ba:62:62:72:99:57:91:c2:50:
         3b:50:5c:cf:74:27:39:1d:62:1d:0f:0c:4e:8a:d4:b9:39:8f:
         28:56:ac:ea:b9:97:bf:5d:81:69:7f:12:19:de:50:90:30:7f:
         0d:6f:67:dd:46:31:5b:7f:ef:08:8b:87:9f:5a:4c:d1:89:b6:
         f9:76:cb:a2:26:7d:8e:86:9d:db:54:55:0c:71:d0:2c:cc:a0:
         5c:07:87:8d:17:4a:77:c7:99:f7:db:b4:19:0d:0d:76:63:6c:
         af:65:17:ee
-----BEGIN CERTIFICATE-----
MIIDSDCCAjCgAwIBAgIQIdsG7eHZxlxZY9q24PcjGjANBgkqhkiG9w0BAQsFADAP
MQ0wCwYDVQQDDAR0ZXN0MB4XDTIxMDYyODA4MDkyNVoXDTIzMTAwMTA4MDkyNVow
EzERMA8GA1UEAwwIbWFpbnVzZXIwggEiMA0GCSqGSIb3DQEBAQUAA4IBDwAwggEK
AoIBAQC9CRPXn47eNe0DatjxPRN0ll5jUriOkqZnQ13Tj9kt0Q9vtYGFzskjMijb
sWm4pSK2DiNsFHCIp2fChXy5XePUYiJFj3F1+TyCK2JmHIfcLK1tJtN//4oQVZJ2
ikR5dR10rSOn4larIRITRtAbZDj+SBBp3lzFhO07nbM+F8g+LD7Rka4rAl8U1tod
etHuhYqKERqBrgq9ZTLhORHIEB1UwbKBwL2AhcgwyuZzj7/gh3LuAeO2VUYtLBeu
AUDKwoMu0WIqiUMK54BfaYWMPMuR2YLGP/Ehqcd4JfV0Rim6EOweImVNYyqO8Szj
bJ7M5dB+fOwKmoGZDnpglFA5mSutAgMBAAGjgZswgZgwCQYDVR0TBAIwADAdBgNV
HQ4EFgQUGMaibEfBGJcHxbnaEHKgF7DFSuwwSgYDVR0jBEMwQYAUVxrquigY//x/
9ok2UCpnnKN1mEGhE6QRMA8xDTALBgNVBAMMBHRlc3SCFF5HxsWw8p51mdKgb0vI
Ef8koyjQMBMGA1UdJQQMMAoGCCsGAQUFBwMCMAsGA1UdDwQEAwIHgDANBgkqhkiG
9w0BAQsFAAOCAQEAo0LL5ipHgNVHl0ArL9qLtgNFrsVp4B9e2JSFe/L2bUH5ZMCI
MRFyaV27bivj5PYt6JfL32aFWEAtO9yjmtg5IcGCLqVbyHYW7OIiDhj3YSu089Cv
rMpM7sZqnynh59lnjEHzsGcJWYZtsAz1hrq8m+FTKyvVN8kRxfieEiN38ybY8JzV
1ojg+czfzQ0JMVMK69znXNz0sYIgumJicplXkcJQO1Bcz3QnOR1iHQ8MTorUuTmP
KFas6rmXv12BaX8SGd5QkDB/DW9n3UYxW3/vCIuHn1pM0Ym2+XbLoiZ9joad21RV
DHHQLMygXAeHjRdKd8eZ99u0GQ0NdmNsr2UX7g==
-----END CERTIFICATE-----
