Certificate:
    Data:
        Version: 3 (0x2)
        Serial Number:
            75:3b:a6:b9:34:00:af:0c:d5:8f:aa:0a:9d:95:b7:3a
        Signature Algorithm: sha256WithRSAEncryption
        Issuer: CN=test
        Validity
            Not Before: Jun 28 08:09:06 2021 GMT
            Not After : Oct  1 08:09:06 2023 GMT
        Subject: CN=192.168.4.20
        Subject Public Key Info:
            Public Key Algorithm: rsaEncryption
                RSA Public-Key: (2048 bit)
                Modulus:
                    00:ba:8f:20:e2:f9:15:b7:a4:d1:d1:99:e6:f7:59:
                    e5:8f:23:cd:cd:e3:c8:03:c5:d5:98:99:1e:be:99:
                    56:3d:1b:30:87:23:3b:8c:d1:f0:a8:3c:b1:d1:06:
                    ae:8f:c0:a8:ad:e4:77:27:ba:1a:7b:5e:d3:28:01:
                    af:97:cc:cd:08:3b:58:0c:c7:13:de:e4:3b:19:8b:
                    23:42:7e:86:19:12:eb:4a:95:10:39:52:62:5d:9f:
                    11:04:ac:d0:77:1c:8f:c7:5d:71:dc:e1:9c:b0:53:
                    12:38:57:0d:8a:bc:06:60:67:b6:3f:67:5b:ee:5d:
                    cd:59:28:b6:71:cc:e2:3e:6f:a9:a5:99:ee:6d:15:
                    53:a6:b9:e6:08:9f:24:b9:fa:09:4e:09:7c:3d:43:
                    74:f5:38:79:6a:98:a7:64:66:3d:e2:a8:66:8b:21:
                    5d:9d:59:78:c8:07:25:05:5a:aa:5d:ae:34:00:05:
                    dc:fd:ec:a1:0a:4e:f7:aa:f1:62:72:f6:33:01:99:
                    08:91:08:b2:80:26:5c:01:ff:ff:56:47:a3:05:96:
                    4d:bd:0e:a8:d6:c7:bc:8f:c8:d6:ce:77:87:e1:45:
                    a8:6c:c0:36:18:b8:91:3b:73:28:cd:5a:b3:4c:61:
                    1a:eb:55:39:ae:17:70:eb:2f:00:14:cb:af:d5:cb:
                    c5:f9
                Exponent: 65537 (0x10001)
        X509v3 extensions:
            X509v3 Basic Constraints: 
                CA:FALSE
            X509v3 Subject Key Identifier: 
                2C:A6:90:9E:BB:69:03:3F:12:0C:5C:DA:EC:6E:11:F3:5A:E6:17:5F
            X509v3 Authority Key Identifier: 
                keyid:57:1A:EA:BA:28:18:FF:FC:7F:F6:89:36:50:2A:67:9C:A3:75:98:41
                DirName:/CN=test
                serial:5E:47:C6:C5:B0:F2:9E:75:99:D2:A0:6F:4B:C8:11:FF:24:A3:28:D0

            X509v3 Extended Key Usage: 
                TLS Web Server Authentication
            X509v3 Key Usage: 
                Digital Signature, Key Encipherment
            X509v3 Subject Alternative Name: 
                IP Address:192.168.4.20
    Signature Algorithm: sha256WithRSAEncryption
         20:fc:cd:14:0a:56:de:c3:2a:b8:ea:60:3a:ed:3d:13:95:30:
         9b:48:dc:9e:12:4f:c4:d1:fb:22:c6:e6:43:60:45:08:51:f6:
         e3:e2:8d:cd:9a:65:46:98:23:0a:bd:ae:1a:ce:27:46:57:87:
         29:78:b0:71:7c:96:ef:8f:34:07:7d:b4:48:21:c7:11:fe:62:
         0b:97:9b:f0:77:a7:2a:a3:e3:98:5b:98:a9:fa:59:90:d5:42:
         d0:02:85:83:f3:da:65:f7:5a:ef:b3:9d:09:3a:16:10:74:1b:
         64:9d:23:93:10:50:5d:32:5d:ae:46:c2:64:ea:5a:0f:8c:89:
         33:f1:9e:03:77:58:58:eb:66:ec:cb:c6:71:30:f5:68:fb:1e:
         da:42:06:2c:3d:04:e6:ee:28:90:f7:af:c4:ff:28:b9:52:1b:
         5e:d7:61:0c:da:ce:87:7b:03:63:a1:8f:2e:bb:46:1c:c8:43:
         84:31:16:5f:1d:c6:05:11:ca:a1:da:dc:49:04:7f:78:78:35:
         06:8d:1c:43:35:fe:a1:a6:72:40:0e:03:a0:ce:a0:05:ce:d4:
         c2:3a:59:ef:48:b6:39:ac:9b:82:86:77:8c:98:26:3f:66:c4:
         71:43:8b:31:b2:37:ef:f0:46:07:74:61:97:ff:be:7a:a8:7d:
         b8:51:96:8e
-----BEGIN CERTIFICATE-----
MIIDXTCCAkWgAwIBAgIQdTumuTQArwzVj6oKnZW3OjANBgkqhkiG9w0BAQsFADAP
MQ0wCwYDVQQDDAR0ZXN0MB4XDTIxMDYyODA4MDkwNloXDTIzMTAwMTA4MDkwNlow
FzEVMBMGA1UEAwwMMTkyLjE2OC40LjIwMIIBIjANBgkqhkiG9w0BAQEFAAOCAQ8A
MIIBCgKCAQEAuo8g4vkVt6TR0Znm91nljyPNzePIA8XVmJkevplWPRswhyM7jNHw
qDyx0Qauj8CoreR3J7oae17TKAGvl8zNCDtYDMcT3uQ7GYsjQn6GGRLrSpUQOVJi
XZ8RBKzQdxyPx11x3OGcsFMSOFcNirwGYGe2P2db7l3NWSi2ccziPm+ppZnubRVT
prnmCJ8kufoJTgl8PUN09Th5apinZGY94qhmiyFdnVl4yAclBVqqXa40AAXc/eyh
Ck73qvFicvYzAZkIkQiygCZcAf//VkejBZZNvQ6o1se8j8jWzneH4UWobMA2GLiR
O3MozVqzTGEa61U5rhdw6y8AFMuv1cvF+QIDAQABo4GsMIGpMAkGA1UdEwQCMAAw
HQYDVR0OBBYEFCymkJ67aQM/Egxc2uxuEfNa5hdfMEoGA1UdIwRDMEGAFFca6roo
GP/8f/aJNlAqZ5yjdZhBoROkETAPMQ0wCwYDVQQDDAR0ZXN0ghReR8bFsPKedZnS
oG9LyBH/JKMo0DATBgNVHSUEDDAKBggrBgEFBQcDATALBgNVHQ8EBAMCBaAwDwYD
VR0RBAgwBocEwKgEFDANBgkqhkiG9w0BAQsFAAOCAQEAIPzNFApW3sMquOpgOu09
E5Uwm0jcnhJPxNH7IsbmQ2BFCFH24+KNzZplRpgjCr2uGs4nRleHKXiwcXyW7480
B320SCHHEf5iC5eb8HenKqPjmFuYqfpZkNVC0AKFg/PaZfda77OdCToWEHQbZJ0j
kxBQXTJdrkbCZOpaD4yJM/GeA3dYWOtm7MvGcTD1aPse2kIGLD0E5u4okPevxP8o
uVIbXtdhDNrOh3sDY6GPLrtGHMhDhDEWXx3GBRHKodrcSQR/eHg1Bo0cQzX+oaZy
QA4DoM6gBc7UwjpZ70i2OaybgoZ3jJgmP2bEcUOLMbI37/BGB3Rhl/++eqh9uFGW
jg==
-----END CERTIFICATE-----
